#include <math.h>
#include <stdio.h>
#include <stdlib.h>
#include <string.h>
#define LEN 100
#define ASCII 100
#define MAX_N 100
#define MAX_N 100
#define L 100
#define MAX 100
#define ASC 100
#define null 0
#define Len 100
#define M 100
#define SUM 100
#define NUMBER 100
#define SIZE 100
#define N 100
#define Max 100
#define X 100
#define Y 100
#define A 100
#define MAXN 100
#define MAXSIZE 100
/*?? ?? ?? ?? ?? ??*/
struct student
{
	struct student *pre;
	char num[100];
	char name[20];
	char sex[2];
	char age[10];
	char score[10];
	char ad[100];
	struct student *next;
};
void main()
{
	int n=0;
	struct student *end,*p1,*p2,*p;
	p1=(struct student *)malloc(LEN);
	scanf("%s",p1->num);
	while(strcmp(p1->num,"end")!=0)
	{
		scanf("%s %s %s %s %s",p1->name,p1->sex,p1->age,p1->score,p1->ad);
		n=n+1;
		if(n==1) 
		{
			p1->pre=NULL;
			p2=p1;
		}
		else
			p1->pre=p2;
			p2=p1;
			p1=(struct student *)malloc(LEN);
			scanf("%s",p1->num);
	}
	end=p2;
	p=end;
	do
	{
		printf("%s %s %s %s %s %s\n",p->num,p->name,p->sex,p->age,p->score,p->ad);
		p=p->pre;
	}while(p!=NULL);

}